target datalayout = "e-m:e-p270:32:32-p271:32:32-p272:64:64-i64:64-i128:128-f80:128-n8:16:32:64-S128"
target triple = "x86_64-pc-linux-gnu"

%"class.icu_77::Char16Ptr" = type { ptr }

; Function Attrs: inlinehint mustprogress nounwind uwtable
define linkonce_odr void @_ZN6icu_779Char16PtrD2Ev(ptr noundef nonnull align 8 dereferenceable(8) %0) unnamed_addr #4 comdat align 2 {
  %2 = alloca ptr, align 8
  store ptr %0, ptr %2, align 8, !tbaa !42
  %3 = load ptr, ptr %2, align 8
  %4 = getelementptr inbounds nuw %"class.icu_77::Char16Ptr", ptr %3, i32 0, i32 0
  %5 = load ptr, ptr %4, align 8, !tbaa !44
  call void asm sideeffect "", "rm,~{memory},~{dirflag},~{fpsr},~{flags}"(ptr %5) #7, !srcloc !46
  ret void
}

; Function Attrs: inlinehint mustprogress nounwind uwtable
define linkonce_odr void @_ZN6icu_779Char16PtrC2EPDs(ptr noundef nonnull align 8 dereferenceable(8) %0, ptr noundef %1) unnamed_addr #4 comdat align 2 {
  %3 = alloca ptr, align 8
  %4 = alloca ptr, align 8
  store ptr %0, ptr %3, align 8, !tbaa !42
  store ptr %1, ptr %4, align 8, !tbaa !24
  %5 = load ptr, ptr %3, align 8
  %6 = getelementptr inbounds nuw %"class.icu_77::Char16Ptr", ptr %5, i32 0, i32 0
  %7 = load ptr, ptr %4, align 8, !tbaa !24
  store ptr %7, ptr %6, align 8, !tbaa !44
  ret void
}

; Function Attrs: inlinehint mustprogress uwtable
define linkonce_odr noundef ptr @_ZN6icu_7710USetAccess9getStringERKNS_10UnicodeSetEi(ptr noundef nonnull align 8 dereferenceable(200) %0, i32 noundef %1) #6 comdat align 2 {
  %3 = alloca ptr, align 8
  %4 = alloca i32, align 4
  store ptr %0, ptr %3, align 8, !tbaa !10
  store i32 %1, ptr %4, align 4, !tbaa !3
  %5 = load ptr, ptr %3, align 8, !tbaa !10
  %6 = load i32, ptr %4, align 4, !tbaa !3
  %7 = call noundef ptr @_ZNK6icu_7710UnicodeSet9getStringEi(ptr noundef nonnull align 8 dereferenceable(200) %5, i32 noundef %6)
  ret ptr %7
}

; Function Attrs: inlinehint mustprogress uwtable
define linkonce_odr noundef i32 @_ZN6icu_7710USetAccess14getStringCountERKNS_10UnicodeSetE(ptr noundef nonnull align 8 dereferenceable(200) %0) #6 comdat align 2 {
  %2 = alloca ptr, align 8
  store ptr %0, ptr %2, align 8, !tbaa !10
  %3 = load ptr, ptr %2, align 8, !tbaa !10
  %4 = call noundef i32 @_ZNK6icu_7710UnicodeSet11stringsSizeEv(ptr noundef nonnull align 8 dereferenceable(200) %3)
  ret i32 %4
}

; Function Attrs: inlinehint mustprogress nounwind uwtable
define internal noundef signext i8 @_ZL9U_FAILURE10UErrorCode(i32 noundef %0) #4 {
  %2 = alloca i32, align 4
  store i32 %0, ptr %2, align 4, !tbaa !40
  %3 = load i32, ptr %2, align 4, !tbaa !40
  %4 = icmp sgt i32 %3, 0
  %5 = zext i1 %4 to i8
  ret i8 %5
}

; Function Attrs: mustprogress uwtable
define i32 @uset_getItem_77(ptr noundef %0, i32 noundef %1, ptr noundef %2, ptr noundef %3, ptr noundef %4, i32 noundef %5, ptr noundef %6) #0 personality ptr @__gxx_personality_v0 {
  %8 = alloca i32, align 4
  %9 = alloca ptr, align 8
  %10 = alloca i32, align 4
  %11 = alloca ptr, align 8
  %12 = alloca ptr, align 8
  %13 = alloca ptr, align 8
  %14 = alloca i32, align 4
  %15 = alloca ptr, align 8
  %16 = alloca ptr, align 8
  %17 = alloca i32, align 4
  %18 = alloca i32, align 4
  %19 = alloca ptr, align 8
  %20 = alloca %"class.icu_77::Char16Ptr", align 8
  %21 = alloca ptr, align 8
  %22 = alloca i32, align 4
  store ptr %0, ptr %9, align 8, !tbaa !7
  store i32 %1, ptr %10, align 4, !tbaa !3
  store ptr %2, ptr %11, align 8, !tbaa !34
  store ptr %3, ptr %12, align 8, !tbaa !34
  store ptr %4, ptr %13, align 8, !tbaa !24
  store i32 %5, ptr %14, align 4, !tbaa !3
  store ptr %6, ptr %15, align 8, !tbaa !39
  %23 = load ptr, ptr %15, align 8, !tbaa !39
  %24 = load i32, ptr %23, align 4, !tbaa !40
  %25 = call noundef signext i8 @_ZL9U_FAILURE10UErrorCode(i32 noundef %24)
  %26 = icmp ne i8 %25, 0
  br i1 %26, label %27, label %28

27:                                               ; preds = %7
  store i32 0, ptr %8, align 4
  br label %73

28:                                               ; preds = %7
  call void @llvm.lifetime.start.p0(i64 8, ptr %16) #7
  %29 = load ptr, ptr %9, align 8, !tbaa !7
  store ptr %29, ptr %16, align 8, !tbaa !10
  call void @llvm.lifetime.start.p0(i64 4, ptr %17) #7
  %30 = load i32, ptr %10, align 4, !tbaa !3
  %31 = icmp slt i32 %30, 0
  br i1 %31, label %32, label %34

32:                                               ; preds = %28
  %33 = load ptr, ptr %15, align 8, !tbaa !39
  store i32 1, ptr %33, align 4, !tbaa !40
  store i32 -1, ptr %8, align 4
  store i32 1, ptr %18, align 4
  br label %72

34:                                               ; preds = %28
  %35 = load i32, ptr %10, align 4, !tbaa !3
  %36 = load ptr, ptr %16, align 8, !tbaa !10
  %37 = call noundef i32 @_ZNK6icu_7710UnicodeSet13getRangeCountEv(ptr noundef nonnull align 8 dereferenceable(200) %36)
  store i32 %37, ptr %17, align 4, !tbaa !3
  %38 = icmp slt i32 %35, %37
  br i1 %38, label %39, label %48

39:                                               ; preds = %34
  %40 = load ptr, ptr %16, align 8, !tbaa !10
  %41 = load i32, ptr %10, align 4, !tbaa !3
  %42 = call noundef i32 @_ZNK6icu_7710UnicodeSet13getRangeStartEi(ptr noundef nonnull align 8 dereferenceable(200) %40, i32 noundef %41)
  %43 = load ptr, ptr %11, align 8, !tbaa !34
  store i32 %42, ptr %43, align 4, !tbaa !3
  %44 = load ptr, ptr %16, align 8, !tbaa !10
  %45 = load i32, ptr %10, align 4, !tbaa !3
  %46 = call noundef i32 @_ZNK6icu_7710UnicodeSet11getRangeEndEi(ptr noundef nonnull align 8 dereferenceable(200) %44, i32 noundef %45)
  %47 = load ptr, ptr %12, align 8, !tbaa !34
  store i32 %46, ptr %47, align 4, !tbaa !3
  store i32 0, ptr %8, align 4
  store i32 1, ptr %18, align 4
  br label %72

48:                                               ; preds = %34
  %49 = load i32, ptr %17, align 4, !tbaa !3
  %50 = load i32, ptr %10, align 4, !tbaa !3
  %51 = sub nsw i32 %50, %49
  store i32 %51, ptr %10, align 4, !tbaa !3
  %52 = load i32, ptr %10, align 4, !tbaa !3
  %53 = load ptr, ptr %16, align 8, !tbaa !10
  %54 = call noundef i32 @_ZN6icu_7710USetAccess14getStringCountERKNS_10UnicodeSetE(ptr noundef nonnull align 8 dereferenceable(200) %53)
  %55 = icmp slt i32 %52, %54
  br i1 %55, label %56, label %70

56:                                               ; preds = %48
  call void @llvm.lifetime.start.p0(i64 8, ptr %19) #7
  %57 = load ptr, ptr %16, align 8, !tbaa !10
  %58 = load i32, ptr %10, align 4, !tbaa !3
  %59 = call noundef ptr @_ZN6icu_7710USetAccess9getStringERKNS_10UnicodeSetEi(ptr noundef nonnull align 8 dereferenceable(200) %57, i32 noundef %58)
  store ptr %59, ptr %19, align 8, !tbaa !35
  %60 = load ptr, ptr %19, align 8, !tbaa !35
  %61 = load ptr, ptr %13, align 8, !tbaa !24
  call void @_ZN6icu_779Char16PtrC2EPDs(ptr noundef nonnull align 8 dereferenceable(8) %20, ptr noundef %61)
  %62 = load i32, ptr %14, align 4, !tbaa !3
  %63 = load ptr, ptr %15, align 8, !tbaa !39
  %64 = invoke noundef i32 @_ZNK6icu_7713UnicodeString7extractENS_9Char16PtrEiR10UErrorCode(ptr noundef nonnull align 8 dereferenceable(64) %60, ptr noundef %20, i32 noundef %62, ptr noundef nonnull align 4 dereferenceable(4) %63)
          to label %65 unwind label %66

65:                                               ; preds = %56
  store i32 %64, ptr %8, align 4
  call void @_ZN6icu_779Char16PtrD2Ev(ptr noundef nonnull align 8 dereferenceable(8) %20) #7
  store i32 1, ptr %18, align 4
  call void @llvm.lifetime.end.p0(i64 8, ptr %19) #7
  br label %72

66:                                               ; preds = %56
  %67 = landingpad { ptr, i32 }
          cleanup
  %68 = extractvalue { ptr, i32 } %67, 0
  store ptr %68, ptr %21, align 8
  %69 = extractvalue { ptr, i32 } %67, 1
  store i32 %69, ptr %22, align 4
  call void @_ZN6icu_779Char16PtrD2Ev(ptr noundef nonnull align 8 dereferenceable(8) %20) #7
  call void @llvm.lifetime.end.p0(i64 8, ptr %19) #7
  call void @llvm.lifetime.end.p0(i64 4, ptr %17) #7
  call void @llvm.lifetime.end.p0(i64 8, ptr %16) #7
  br label %75

70:                                               ; preds = %48
  %71 = load ptr, ptr %15, align 8, !tbaa !39
  store i32 8, ptr %71, align 4, !tbaa !40
  store i32 -1, ptr %8, align 4
  store i32 1, ptr %18, align 4
  br label %72

72:                                               ; preds = %70, %65, %39, %32
  call void @llvm.lifetime.end.p0(i64 4, ptr %17) #7
  call void @llvm.lifetime.end.p0(i64 8, ptr %16) #7
  br label %73

73:                                               ; preds = %72, %27
  %74 = load i32, ptr %8, align 4
  ret i32 %74

75:                                               ; preds = %66
  %76 = load ptr, ptr %21, align 8
  %77 = load i32, ptr %22, align 4
  %78 = insertvalue { ptr, i32 } poison, ptr %76, 0
  %79 = insertvalue { ptr, i32 } %78, i32 %77, 1
  resume { ptr, i32 } %79
}