; Function Attrs: mustprogress uwtable
define noundef i32 @uset_getItem_77(ptr noundef %0, i32 noundef %1, ptr noundef writeonly captures(none) %2, ptr noundef writeonly captures(none) %3, ptr noundef %4, i32 noundef %5, ptr noundef %6) local_unnamed_addr #0 personality ptr @__gxx_personality_v0 {
  %8 = alloca %"class.icu_77::Char16Ptr", align 8
  %9 = load i32, ptr %6, align 4, !tbaa !24
  %10 = icmp slt i32 %9, 1
  br i1 %10, label %11, label %33

11:                                               ; preds = %7
  %12 = icmp slt i32 %1, 0
  br i1 %12, label %13, label %14

13:                                               ; preds = %11
  store i32 1, ptr %6, align 4, !tbaa !24
  br label %33

14:                                               ; preds = %11
  %15 = tail call noundef i32 @_ZNK6icu_7710UnicodeSet13getRangeCountEv(ptr noundef nonnull align 8 dereferenceable(200) %0)
  %16 = icmp slt i32 %1, %15
  br i1 %16, label %17, label %20

17:                                               ; preds = %14
  %18 = tail call noundef i32 @_ZNK6icu_7710UnicodeSet13getRangeStartEi(ptr noundef nonnull align 8 dereferenceable(200) %0, i32 noundef %1)
  store i32 %18, ptr %2, align 4, !tbaa !21
  %19 = tail call noundef i32 @_ZNK6icu_7710UnicodeSet11getRangeEndEi(ptr noundef nonnull align 8 dereferenceable(200) %0, i32 noundef %1)
  store i32 %19, ptr %3, align 4, !tbaa !21
  br label %33

20:                                               ; preds = %14
  %21 = sub nsw i32 %1, %15
  %22 = tail call noundef i32 @_ZNK6icu_7710UnicodeSet11stringsSizeEv(ptr noundef nonnull align 8 dereferenceable(200) %0)
  %23 = icmp slt i32 %21, %22
  br i1 %23, label %24, label %32

24:                                               ; preds = %20
  %25 = tail call noundef ptr @_ZNK6icu_7710UnicodeSet9getStringEi(ptr noundef nonnull align 8 dereferenceable(200) %0, i32 noundef %21)
  store ptr %4, ptr %8, align 8, !tbaa !26
  %26 = invoke noundef i32 @_ZNK6icu_7713UnicodeString7extractENS_9Char16PtrEiR10UErrorCode(ptr noundef nonnull align 8 dereferenceable(64) %25, ptr noundef nonnull %8, i32 noundef %5, ptr noundef nonnull align 4 dereferenceable(4) %6)
          to label %27 unwind label %29

27:                                               ; preds = %24
  %28 = load ptr, ptr %8, align 8, !tbaa !26
  call void asm sideeffect "", "rm,~{memory},~{dirflag},~{fpsr},~{flags}"(ptr %28) #10, !srcloc !28
  br label %33

29:                                               ; preds = %24
  %30 = landingpad { ptr, i32 }
          cleanup
  %31 = load ptr, ptr %8, align 8, !tbaa !26
  call void asm sideeffect "", "rm,~{memory},~{dirflag},~{fpsr},~{flags}"(ptr %31) #10, !srcloc !28
  resume { ptr, i32 } %30

32:                                               ; preds = %20
  store i32 8, ptr %6, align 4, !tbaa !24
  br label %33

33:                                               ; preds = %13, %17, %27, %32, %7
  %.0 = phi i32 [ 0, %7 ], [ -1, %13 ], [ 0, %17 ], [ %26, %27 ], [ -1, %32 ]
  ret i32 %.0
}